target datalayout = "e-m:e-p270:32:32-p271:32:32-p272:64:64-i64:64-i128:128-f80:128-n8:16:32:64-S128"
target triple = "x86_64-pc-linux-gnu"

%class.JfrStorage = type { ptr, ptr, ptr, ptr, ptr, ptr }

@_ZL9_instance = internal global ptr null, align 8

; Function Attrs: mustprogress nounwind uwtable
define hidden void @_ZN10JfrStorageD2Ev(ptr noundef nonnull align 8 dereferenceable(48) %0) unnamed_addr #1 align 2 {
  %2 = alloca ptr, align 8
  store ptr %0, ptr %2, align 8
  %3 = load ptr, ptr %2, align 8
  %4 = getelementptr inbounds %class.JfrStorage, ptr %3, i32 0, i32 0
  %5 = load ptr, ptr %4, align 8
  %6 = icmp ne ptr %5, null
  br i1 %6, label %7, label %13

7:                                                ; preds = %1
  %8 = getelementptr inbounds %class.JfrStorage, ptr %3, i32 0, i32 0
  %9 = load ptr, ptr %8, align 8
  %10 = icmp eq ptr %9, null
  br i1 %10, label %12, label %11

11:                                               ; preds = %7
  call void @_ZN11JfrCHeapObjdlEPvm(ptr noundef %9, i64 noundef 56) #6
  br label %12

12:                                               ; preds = %11, %7
  br label %13

13:                                               ; preds = %12, %1
  %14 = getelementptr inbounds %class.JfrStorage, ptr %3, i32 0, i32 1
  %15 = load ptr, ptr %14, align 8
  %16 = icmp ne ptr %15, null
  br i1 %16, label %17, label %23

17:                                               ; preds = %13
  %18 = getelementptr inbounds %class.JfrStorage, ptr %3, i32 0, i32 1
  %19 = load ptr, ptr %18, align 8
  %20 = icmp eq ptr %19, null
  br i1 %20, label %22, label %21

21:                                               ; preds = %17
  call void @_ZN14JfrMemorySpaceI10JfrStorage18JfrMspaceRetrieval13JfrLinkedListI9JfrBuffer11JfrCHeapObjES5_Lb0EED2Ev(ptr noundef nonnull align 8 dereferenceable(64) %19) #6
  call void @_ZN11JfrCHeapObjdlEPvm(ptr noundef %19, i64 noundef 64) #6
  br label %22

22:                                               ; preds = %21, %17
  br label %23

23:                                               ; preds = %22, %13
  %24 = getelementptr inbounds %class.JfrStorage, ptr %3, i32 0, i32 2
  %25 = load ptr, ptr %24, align 8
  %26 = icmp ne ptr %25, null
  br i1 %26, label %27, label %33

27:                                               ; preds = %23
  %28 = getelementptr inbounds %class.JfrStorage, ptr %3, i32 0, i32 2
  %29 = load ptr, ptr %28, align 8
  %30 = icmp eq ptr %29, null
  br i1 %30, label %32, label %31

31:                                               ; preds = %27
  call void @_ZN14JfrMemorySpaceI10JfrStorage24JfrMspaceRemoveRetrieval18JfrConcurrentQueueI9JfrBuffer11JfrCHeapObjE13JfrLinkedListIS3_S4_ELb0EED2Ev(ptr noundef nonnull align 8 dereferenceable(472) %29) #6
  call void @_ZN11JfrCHeapObjdlEPvm(ptr noundef %29, i64 noundef 472) #6
  br label %32

32:                                               ; preds = %31, %27
  br label %33

33:                                               ; preds = %32, %23
  %34 = getelementptr inbounds %class.JfrStorage, ptr %3, i32 0, i32 3
  %35 = load ptr, ptr %34, align 8
  %36 = icmp ne ptr %35, null
  br i1 %36, label %37, label %43

37:                                               ; preds = %33
  %38 = getelementptr inbounds %class.JfrStorage, ptr %3, i32 0, i32 3
  %39 = load ptr, ptr %38, align 8
  %40 = icmp eq ptr %39, null
  br i1 %40, label %42, label %41

41:                                               ; preds = %37
  call void @_ZN14JfrFullStorageIP9JfrBuffer12JfrValueNode11JfrCHeapObjED2Ev(ptr noundef nonnull align 8 dereferenceable(24) %39) #6
  call void @_ZN11JfrCHeapObjdlEPvm(ptr noundef %39, i64 noundef 24) #6
  br label %42

42:                                               ; preds = %41, %37
  br label %43

43:                                               ; preds = %42, %33
  store ptr null, ptr @_ZL9_instance, align 8
  ret void
}