; Function Attrs: mustprogress nounwind uwtable
define hidden void @_ZN10JfrStorageD2Ev(ptr nocapture noundef nonnull readonly align 8 dereferenceable(48) %0) unnamed_addr #1 align 2 {
  %2 = load ptr, ptr %0, align 8
  %.not = icmp eq ptr %2, null
  br i1 %.not, label %4, label %3

3:                                                ; preds = %1
  tail call void @_ZN11JfrCHeapObjdlEPvm(ptr noundef nonnull %2, i64 noundef 56) #16
  br label %4

4:                                                ; preds = %3, %1
  %5 = getelementptr inbounds i8, ptr %0, i64 8
  %6 = load ptr, ptr %5, align 8
  %.not4 = icmp eq ptr %6, null
  br i1 %.not4, label %8, label %7

7:                                                ; preds = %4
  tail call void @_ZN14JfrMemorySpaceI10JfrStorage18JfrMspaceRetrieval13JfrLinkedListI9JfrBuffer11JfrCHeapObjES5_Lb0EED2Ev(ptr noundef nonnull align 8 dereferenceable(64) %6) #16
  tail call void @_ZN11JfrCHeapObjdlEPvm(ptr noundef nonnull %6, i64 noundef 64) #16
  br label %8

8:                                                ; preds = %7, %4
  %9 = getelementptr inbounds i8, ptr %0, i64 16
  %10 = load ptr, ptr %9, align 8
  %.not5 = icmp eq ptr %10, null
  br i1 %.not5, label %12, label %11

11:                                               ; preds = %8
  tail call void @_ZN14JfrMemorySpaceI10JfrStorage24JfrMspaceRemoveRetrieval18JfrConcurrentQueueI9JfrBuffer11JfrCHeapObjE13JfrLinkedListIS3_S4_ELb0EED2Ev(ptr noundef nonnull align 8 dereferenceable(472) %10) #16
  tail call void @_ZN11JfrCHeapObjdlEPvm(ptr noundef nonnull %10, i64 noundef 472) #16
  br label %12

12:                                               ; preds = %11, %8
  %13 = getelementptr inbounds i8, ptr %0, i64 24
  %14 = load ptr, ptr %13, align 8
  %.not6 = icmp eq ptr %14, null
  br i1 %.not6, label %16, label %15

15:                                               ; preds = %12
  tail call void @_ZN14JfrFullStorageIP9JfrBuffer12JfrValueNode11JfrCHeapObjED2Ev(ptr noundef nonnull align 8 dereferenceable(24) %14) #16
  tail call void @_ZN11JfrCHeapObjdlEPvm(ptr noundef nonnull %14, i64 noundef 24) #16
  br label %16

16:                                               ; preds = %15, %12
  store ptr null, ptr @_ZL9_instance, align 8
  ret void
}